; Function Attrs: nounwind uwtable
define ptr @l_Array_forIn_x27Unsafe_loop___at_Lean_Elab_Tactic_GuardMsgs_guardMsgsCodeAction___spec__5___boxed(ptr noundef %0, ptr noundef %1, ptr noundef %2, ptr noundef %3, ptr noundef %4, ptr noundef %5, ptr noundef %6) local_unnamed_addr #0 {
  %8 = getelementptr i8, ptr %4, i64 8
  %.val34 = load i64, ptr %8, align 8, !tbaa !11
  %9 = ptrtoint ptr %4 to i64
  %10 = and i64 %9, 1
  %.not = icmp eq i64 %10, 0
  br i1 %.not, label %11, label %lean_dec.exit21

11:                                               ; preds = %7
  %12 = load i32, ptr %4, align 4, !tbaa !8
  %13 = icmp sgt i32 %12, 1
  br i1 %13, label %14, label %16, !prof !13

14:                                               ; preds = %11
  %15 = add nsw i32 %12, -1
  store i32 %15, ptr %4, align 4, !tbaa !8
  br label %lean_dec.exit21

16:                                               ; preds = %11
  %.not.i = icmp eq i32 %12, 0
  br i1 %.not.i, label %lean_dec.exit21, label %17

17:                                               ; preds = %16
  tail call void @lean_dec_ref_cold(ptr noundef nonnull %4) #7
  br label %lean_dec.exit21

lean_dec.exit21:                                  ; preds = %17, %16, %14, %7
  %18 = getelementptr i8, ptr %5, i64 8
  %.val = load i64, ptr %18, align 8, !tbaa !11
  %19 = ptrtoint ptr %5 to i64
  %20 = and i64 %19, 1
  %.not35 = icmp eq i64 %20, 0
  br i1 %.not35, label %21, label %lean_dec.exit20

21:                                               ; preds = %lean_dec.exit21
  %22 = load i32, ptr %5, align 4, !tbaa !8
  %23 = icmp sgt i32 %22, 1
  br i1 %23, label %24, label %26, !prof !13

24:                                               ; preds = %21
  %25 = add nsw i32 %22, -1
  store i32 %25, ptr %5, align 4, !tbaa !8
  br label %lean_dec.exit20

26:                                               ; preds = %21
  %.not.i22 = icmp eq i32 %22, 0
  br i1 %.not.i22, label %lean_dec.exit20, label %27

27:                                               ; preds = %26
  tail call void @lean_dec_ref_cold(ptr noundef nonnull %5) #7
  br label %lean_dec.exit20

lean_dec.exit20:                                  ; preds = %27, %26, %24, %lean_dec.exit21
  %28 = tail call ptr @l_Array_forIn_x27Unsafe_loop___at_Lean_Elab_Tactic_GuardMsgs_guardMsgsCodeAction___spec__5(ptr poison, ptr poison, ptr noundef %2, ptr noundef %3, i64 noundef %.val34, i64 noundef %.val, ptr noundef %6)
  %29 = ptrtoint ptr %6 to i64
  %30 = and i64 %29, 1
  %.not36 = icmp eq i64 %30, 0
  br i1 %.not36, label %31, label %lean_dec.exit19

31:                                               ; preds = %lean_dec.exit20
  %32 = load i32, ptr %6, align 4, !tbaa !8
  %33 = icmp sgt i32 %32, 1
  br i1 %33, label %34, label %36, !prof !13

34:                                               ; preds = %31
  %35 = add nsw i32 %32, -1
  store i32 %35, ptr %6, align 4, !tbaa !8
  br label %lean_dec.exit19

36:                                               ; preds = %31
  %.not.i24 = icmp eq i32 %32, 0
  br i1 %.not.i24, label %lean_dec.exit19, label %37

37:                                               ; preds = %36
  tail call void @lean_dec_ref_cold(ptr noundef nonnull %6) #7
  br label %lean_dec.exit19

lean_dec.exit19:                                  ; preds = %37, %36, %34, %lean_dec.exit20
  %38 = ptrtoint ptr %3 to i64
  %39 = and i64 %38, 1
  %.not37 = icmp eq i64 %39, 0
  br i1 %.not37, label %40, label %lean_dec.exit18

40:                                               ; preds = %lean_dec.exit19
  %41 = load i32, ptr %3, align 4, !tbaa !8
  %42 = icmp sgt i32 %41, 1
  br i1 %42, label %43, label %45, !prof !13

43:                                               ; preds = %40
  %44 = add nsw i32 %41, -1
  store i32 %44, ptr %3, align 4, !tbaa !8
  br label %lean_dec.exit18

45:                                               ; preds = %40
  %.not.i26 = icmp eq i32 %41, 0
  br i1 %.not.i26, label %lean_dec.exit18, label %46

46:                                               ; preds = %45
  tail call void @lean_dec_ref_cold(ptr noundef nonnull %3) #7
  br label %lean_dec.exit18

lean_dec.exit18:                                  ; preds = %46, %45, %43, %lean_dec.exit19
  %47 = ptrtoint ptr %2 to i64
  %48 = and i64 %47, 1
  %.not38 = icmp eq i64 %48, 0
  br i1 %.not38, label %49, label %lean_dec.exit17

49:                                               ; preds = %lean_dec.exit18
  %50 = load i32, ptr %2, align 4, !tbaa !8
  %51 = icmp sgt i32 %50, 1
  br i1 %51, label %52, label %54, !prof !13

52:                                               ; preds = %49
  %53 = add nsw i32 %50, -1
  store i32 %53, ptr %2, align 4, !tbaa !8
  br label %lean_dec.exit17

54:                                               ; preds = %49
  %.not.i28 = icmp eq i32 %50, 0
  br i1 %.not.i28, label %lean_dec.exit17, label %55

55:                                               ; preds = %54
  tail call void @lean_dec_ref_cold(ptr noundef nonnull %2) #7
  br label %lean_dec.exit17

lean_dec.exit17:                                  ; preds = %55, %54, %52, %lean_dec.exit18
  %56 = ptrtoint ptr %1 to i64
  %57 = and i64 %56, 1
  %.not39 = icmp eq i64 %57, 0
  br i1 %.not39, label %58, label %lean_dec.exit16

58:                                               ; preds = %lean_dec.exit17
  %59 = load i32, ptr %1, align 4, !tbaa !8
  %60 = icmp sgt i32 %59, 1
  br i1 %60, label %61, label %63, !prof !13

61:                                               ; preds = %58
  %62 = add nsw i32 %59, -1
  store i32 %62, ptr %1, align 4, !tbaa !8
  br label %lean_dec.exit16

63:                                               ; preds = %58
  %.not.i30 = icmp eq i32 %59, 0
  br i1 %.not.i30, label %lean_dec.exit16, label %64

64:                                               ; preds = %63
  tail call void @lean_dec_ref_cold(ptr noundef nonnull %1) #7
  br label %lean_dec.exit16

lean_dec.exit16:                                  ; preds = %64, %63, %61, %lean_dec.exit17
  %65 = ptrtoint ptr %0 to i64
  %66 = and i64 %65, 1
  %.not40 = icmp eq i64 %66, 0
  br i1 %.not40, label %67, label %lean_dec.exit

67:                                               ; preds = %lean_dec.exit16
  %68 = load i32, ptr %0, align 4, !tbaa !8
  %69 = icmp sgt i32 %68, 1
  br i1 %69, label %70, label %72, !prof !13

70:                                               ; preds = %67
  %71 = add nsw i32 %68, -1
  store i32 %71, ptr %0, align 4, !tbaa !8
  br label %lean_dec.exit

72:                                               ; preds = %67
  %.not.i32 = icmp eq i32 %68, 0
  br i1 %.not.i32, label %lean_dec.exit, label %73

73:                                               ; preds = %72
  tail call void @lean_dec_ref_cold(ptr noundef nonnull %0) #7
  br label %lean_dec.exit

lean_dec.exit:                                    ; preds = %73, %72, %70, %lean_dec.exit16
  ret ptr %28
}